Certificate:
    Data:
        Version: 3 (0x2)
        Serial Number: 65 (0x41)
        Signature Algorithm: sha1WithRSAEncryption
        Issuer: C=GB, O=JISC Core Middleware Programme, CN=SDSS CA
        Validity
            Not Before: Aug  9 09:21:54 2006 GMT
            Not After : Dec 31 00:00:00 2008 GMT
        Subject: C=GB, O=JISC Core Middleware Programme, OU=SDSS Project, CN=SDSS Federation SSL Tester
        Subject Public Key Info:
            Public Key Algorithm: rsaEncryption
            RSA Public Key: (1024 bit)
                Modulus (1024 bit):
                    00:d2:07:6d:b1:98:9e:be:25:ec:de:32:69:a8:e6:
                    fc:3f:12:55:8e:44:c8:03:c6:c9:a9:8b:b3:3f:6f:
                    50:1f:b6:5d:5f:93:be:b2:5e:e6:d9:06:62:c5:84:
                    ed:b3:c6:43:ce:e1:f8:de:7d:2f:e4:c8:fe:12:23:
                    28:87:58:46:a0:5e:39:bf:59:c3:de:25:25:92:aa:
                    8c:5a:42:cf:d8:cd:0d:63:c3:5d:55:bc:e3:6a:0b:
                    1f:ce:d0:c3:b8:63:4a:de:4a:de:00:b6:8d:56:84:
                    96:e8:4e:11:31:2e:03:7a:d7:e2:f3:eb:40:fe:43:
                    68:40:73:c7:06:f9:fc:dd:d9
                Exponent: 65537 (0x10001)
        X509v3 extensions:
            X509v3 Basic Constraints: 
                CA:FALSE
            X509v3 Key Usage: 
                Digital Signature, Key Encipherment, Data Encipherment
            X509v3 CRL Distribution Points: 
                URI:http://sdss.ac.uk/ca/sdss-ca.crl

            X509v3 Subject Key Identifier: 
                7C:67:CC:3D:6D:40:43:EE:1A:79:5D:14:DA:C3:A0:54:B2:96:B8:06
            X509v3 Authority Key Identifier: 
                keyid:BE:AD:20:87:49:07:67:71:1E:CF:D7:BA:AB:40:8A:77:16:1D:2B:C0
                DirName:/C=GB/O=JISC Core Middleware Programme/CN=SDSS CA
                serial:00

    Signature Algorithm: sha1WithRSAEncryption
        1e:e1:11:92:b1:0c:5e:6a:8e:55:93:0c:2b:92:0b:a0:9b:ba:
        55:37:de:91:78:4a:a8:87:09:50:d5:46:fa:53:98:c4:9c:94:
        ac:0f:92:28:40:bf:7d:63:cf:1f:a1:2b:af:6f:63:ba:e4:26:
        a3:3e:05:f8:8a:cc:a3:47:a1:86:74:d9:92:96:89:88:37:4d:
        28:c7:bb:d4:5c:f2:93:d3:8e:08:2d:68:6c:72:cf:7c:83:6d:
        98:6f:dd:37:9b:5c:4a:6e:3b:9d:a5:66:25:6d:69:05:8c:2e:
        f4:d9:41:63:ef:0b:5a:7a:8e:1e:e4:5f:35:6a:93:7d:6f:67:
        4a:4a
-----BEGIN CERTIFICATE-----
MIIDEDCCAnmgAwIBAgIBQTANBgkqhkiG9w0BAQUFADBIMQswCQYDVQQGEwJHQjEn
MCUGA1UEChMeSklTQyBDb3JlIE1pZGRsZXdhcmUgUHJvZ3JhbW1lMRAwDgYDVQQD
EwdTRFNTIENBMB4XDTA2MDgwOTA5MjE1NFoXDTA4MTIzMTAwMDAwMFowcjELMAkG
A1UEBhMCR0IxJzAlBgNVBAoTHkpJU0MgQ29yZSBNaWRkbGV3YXJlIFByb2dyYW1t
ZTEVMBMGA1UECxMMU0RTUyBQcm9qZWN0MSMwIQYDVQQDExpTRFNTIEZlZGVyYXRp
b24gU1NMIFRlc3RlcjCBnzANBgkqhkiG9w0BAQEFAAOBjQAwgYkCgYEA0gdtsZie
viXs3jJpqOb8PxJVjkTIA8bJqYuzP29QH7ZdX5O+sl7m2QZixYTts8ZDzuH43n0v
5Mj+EiMoh1hGoF45v1nD3iUlkqqMWkLP2M0NY8NdVbzjagsfztDDuGNK3kreALaN
VoSW6E4RMS4Detfi8+tA/kNoQHPHBvn83dkCAwEAAaOB3zCB3DAJBgNVHRMEAjAA
MAsGA1UdDwQEAwIEsDAxBgNVHR8EKjAoMCagJKAihiBodHRwOi8vc2Rzcy5hYy51
ay9jYS9zZHNzLWNhLmNybDAdBgNVHQ4EFgQUfGfMPW1AQ+4aeV0U2sOgVLKWuAYw
cAYDVR0jBGkwZ4AUvq0gh0kHZ3Eez9e6q0CKdxYdK8ChTKRKMEgxCzAJBgNVBAYT
AkdCMScwJQYDVQQKEx5KSVNDIENvcmUgTWlkZGxld2FyZSBQcm9ncmFtbWUxEDAO
BgNVBAMTB1NEU1MgQ0GCAQAwDQYJKoZIhvcNAQEFBQADgYEAHuERkrEMXmqOVZMM
K5ILoJu6VTfekXhKqIcJUNVG+lOYxJyUrA+SKEC/fWPPH6Err29juuQmoz4F+IrM
o0ehhnTZkpaJiDdNKMe71Fzyk9OOCC1obHLPfINtmG/dN5tcSm47naVmJW1pBYwu
9NlBY+8LWnqOHuRfNWqTfW9nSko=
-----END CERTIFICATE-----
